; Function Attrs: mustprogress nounwind uwtable
define hidden noundef ptr @_ZNK9LoadSNode5ValueEP8PhaseGVN(ptr noundef nonnull align 8 dereferenceable(72) %0, ptr noundef %1) unnamed_addr #1 align 2 {
  %3 = getelementptr inbounds i8, ptr %0, i64 8
  %4 = load ptr, ptr %3, align 8
  %5 = getelementptr inbounds i8, ptr %4, i64 8
  %6 = load ptr, ptr %5, align 8
  %7 = tail call noundef ptr @_ZNK7MemNode20can_see_stored_valueEP4NodeP11PhaseValues(ptr noundef nonnull align 8 dereferenceable(56) %0, ptr noundef %6, ptr noundef %1)
  %.not = icmp eq ptr %7, null
  br i1 %.not, label %34, label %8

8:                                                ; preds = %2
  %9 = getelementptr inbounds i8, ptr %7, i64 48
  %10 = load i32, ptr %9, align 8
  %11 = and i32 %10, 16
  %.not10 = icmp eq i32 %11, 0
  br i1 %.not10, label %34, label %12

12:                                               ; preds = %8
  %13 = load ptr, ptr %7, align 8
  %14 = getelementptr inbounds i8, ptr %13, i64 40
  %15 = load ptr, ptr %14, align 8
  %16 = tail call noundef ptr %15(ptr noundef nonnull align 8 dereferenceable(52) %7) #13
  %17 = getelementptr inbounds i8, ptr %0, i64 64
  %18 = load ptr, ptr %17, align 8
  %19 = tail call noundef ptr @_ZNK4Type11meet_helperEPKS_b(ptr noundef nonnull align 8 dereferenceable(20) %16, ptr noundef %18, i1 noundef zeroext false) #13
  %20 = load ptr, ptr %18, align 8
  %21 = getelementptr inbounds i8, ptr %20, i64 128
  %22 = load ptr, ptr %21, align 8
  %23 = tail call noundef ptr %22(ptr noundef nonnull align 8 dereferenceable(20) %18) #13
  %24 = tail call noundef zeroext i1 @_ZN4Type6equalsEPKS_S1_(ptr noundef %19, ptr noundef %23) #13
  br i1 %24, label %34, label %25

25:                                               ; preds = %12
  %26 = tail call noundef ptr @_ZNK4Node13find_int_typeEv(ptr noundef nonnull align 8 dereferenceable(52) %7) #13
  %.not.i = icmp eq ptr %26, null
  br i1 %.not.i, label %27, label %_ZNK4Node7get_intEv.exit

27:                                               ; preds = %25
  %28 = load ptr, ptr @g_assert_poison, align 8
  store i8 88, ptr %28, align 1
  tail call void (ptr, i32, ptr, ptr, ...) @_Z15report_vm_errorPKciS0_S0_z(ptr noundef nonnull @.str.9, i32 noundef 1206, ptr noundef nonnull @.str.10, ptr noundef nonnull @.str.11) #14
  unreachable

_ZNK4Node7get_intEv.exit:                         ; preds = %25
  %29 = getelementptr inbounds i8, ptr %26, i64 24
  %30 = load i32, ptr %29, align 8
  %31 = shl i32 %30, 16
  %32 = ashr exact i32 %31, 16
  %33 = tail call noundef ptr @_ZN7TypeInt4makeEi(i32 noundef %32) #13
  br label %36

34:                                               ; preds = %12, %8, %2
  %35 = tail call noundef ptr @_ZNK8LoadNode5ValueEP8PhaseGVN(ptr noundef nonnull align 8 dereferenceable(72) %0, ptr noundef %1)
  br label %36

36:                                               ; preds = %34, %_ZNK4Node7get_intEv.exit
  %.0 = phi ptr [ %35, %34 ], [ %33, %_ZNK4Node7get_intEv.exit ]
  ret ptr %.0
}